target datalayout = "e-m:e-p270:32:32-p271:32:32-p272:64:64-i64:64-i128:128-f80:128-n8:16:32:64-S128"
target triple = "x86_64-pc-linux-gnu"

%struct.Dau_Dsd_t_ = type { i32, i32, i32, i32, i32, i32, i32, i32, ptr, [32 x [8 x i8]], [32 x [32 x i8]], [2000 x i8] }

; Function Attrs: inlinehint nounwind uwtable
define internal void @Dau_DsdWriteVar(ptr noundef %0, i32 noundef %1, i32 noundef %2) #2 {
  %4 = alloca ptr, align 8
  %5 = alloca i32, align 4
  %6 = alloca i32, align 4
  %7 = alloca ptr, align 8
  store ptr %0, ptr %4, align 8, !tbaa !80
  store i32 %1, ptr %5, align 4, !tbaa !8
  store i32 %2, ptr %6, align 4, !tbaa !8
  call void @llvm.lifetime.start.p0(i64 8, ptr %7) #9
  %8 = load i32, ptr %6, align 4, !tbaa !8
  %9 = icmp ne i32 %8, 0
  br i1 %9, label %10, label %19

10:                                               ; preds = %3
  %11 = load ptr, ptr %4, align 8, !tbaa !80
  %12 = getelementptr inbounds nuw %struct.Dau_Dsd_t_, ptr %11, i32 0, i32 11
  %13 = load ptr, ptr %4, align 8, !tbaa !80
  %14 = getelementptr inbounds nuw %struct.Dau_Dsd_t_, ptr %13, i32 0, i32 2
  %15 = load i32, ptr %14, align 8, !tbaa !102
  %16 = add nsw i32 %15, 1
  store i32 %16, ptr %14, align 8, !tbaa !102
  %17 = sext i32 %15 to i64
  %18 = getelementptr inbounds [2000 x i8], ptr %12, i64 0, i64 %17
  store i8 33, ptr %18, align 1, !tbaa !10
  br label %19

19:                                               ; preds = %10, %3
  %20 = load ptr, ptr %4, align 8, !tbaa !80
  %21 = getelementptr inbounds nuw %struct.Dau_Dsd_t_, ptr %20, i32 0, i32 9
  %22 = load i32, ptr %5, align 4, !tbaa !8
  %23 = sext i32 %22 to i64
  %24 = getelementptr inbounds [32 x [8 x i8]], ptr %21, i64 0, i64 %23
  %25 = getelementptr inbounds [8 x i8], ptr %24, i64 0, i64 0
  store ptr %25, ptr %7, align 8, !tbaa !3
  br label %26

26:                                               ; preds = %66, %19
  %27 = load ptr, ptr %7, align 8, !tbaa !3
  %28 = load i8, ptr %27, align 1, !tbaa !10
  %29 = icmp ne i8 %28, 0
  br i1 %29, label %30, label %69

30:                                               ; preds = %26
  %31 = load ptr, ptr %7, align 8, !tbaa !3
  %32 = load i8, ptr %31, align 1, !tbaa !10
  %33 = sext i8 %32 to i32
  %34 = load ptr, ptr %4, align 8, !tbaa !80
  %35 = getelementptr inbounds nuw %struct.Dau_Dsd_t_, ptr %34, i32 0, i32 0
  %36 = load i32, ptr %35, align 8, !tbaa !87
  %37 = add nsw i32 97, %36
  %38 = icmp sge i32 %33, %37
  br i1 %38, label %39, label %54

39:                                               ; preds = %30
  %40 = load ptr, ptr %7, align 8, !tbaa !3
  %41 = load i8, ptr %40, align 1, !tbaa !10
  %42 = sext i8 %41 to i32
  %43 = load ptr, ptr %4, align 8, !tbaa !80
  %44 = getelementptr inbounds nuw %struct.Dau_Dsd_t_, ptr %43, i32 0, i32 1
  %45 = load i32, ptr %44, align 4, !tbaa !88
  %46 = add nsw i32 97, %45
  %47 = icmp slt i32 %42, %46
  br i1 %47, label %48, label %54

48:                                               ; preds = %39
  %49 = load ptr, ptr %4, align 8, !tbaa !80
  %50 = load ptr, ptr %7, align 8, !tbaa !3
  %51 = load i8, ptr %50, align 1, !tbaa !10
  %52 = sext i8 %51 to i32
  %53 = sub nsw i32 %52, 97
  call void @Dau_DsdWriteVar(ptr noundef %49, i32 noundef %53, i32 noundef 0)
  br label %65

54:                                               ; preds = %39, %30
  %55 = load ptr, ptr %7, align 8, !tbaa !3
  %56 = load i8, ptr %55, align 1, !tbaa !10
  %57 = load ptr, ptr %4, align 8, !tbaa !80
  %58 = getelementptr inbounds nuw %struct.Dau_Dsd_t_, ptr %57, i32 0, i32 11
  %59 = load ptr, ptr %4, align 8, !tbaa !80
  %60 = getelementptr inbounds nuw %struct.Dau_Dsd_t_, ptr %59, i32 0, i32 2
  %61 = load i32, ptr %60, align 8, !tbaa !102
  %62 = add nsw i32 %61, 1
  store i32 %62, ptr %60, align 8, !tbaa !102
  %63 = sext i32 %61 to i64
  %64 = getelementptr inbounds [2000 x i8], ptr %58, i64 0, i64 %63
  store i8 %56, ptr %64, align 1, !tbaa !10
  br label %65

65:                                               ; preds = %54, %48
  br label %66

66:                                               ; preds = %65
  %67 = load ptr, ptr %7, align 8, !tbaa !3
  %68 = getelementptr inbounds nuw i8, ptr %67, i32 1
  store ptr %68, ptr %7, align 8, !tbaa !3
  br label %26, !llvm.loop !103

69:                                               ; preds = %26
  call void @llvm.lifetime.end.p0(i64 8, ptr %7) #9
  ret void
}