; Function Attrs: inlinehint nofree nosync nounwind memory(argmem: readwrite) uwtable
define internal fastcc void @Dau_DsdWriteVar(ptr noundef captures(none) %0, i32 noundef %1, i32 noundef range(i32 0, 2) %2) unnamed_addr #18 {
  %.not = icmp eq i32 %2, 0
  br i1 %.not, label %11, label %4

4:                                                ; preds = %3
  %5 = getelementptr inbounds nuw i8, ptr %0, i64 1320
  %6 = getelementptr inbounds nuw i8, ptr %0, i64 8
  %7 = load i32, ptr %6, align 8, !tbaa !93
  %8 = add nsw i32 %7, 1
  store i32 %8, ptr %6, align 8, !tbaa !93
  %9 = sext i32 %7 to i64
  %10 = getelementptr inbounds [2000 x i8], ptr %5, i64 0, i64 %9
  store i8 33, ptr %10, align 1, !tbaa !3
  br label %11

11:                                               ; preds = %4, %3
  %12 = getelementptr inbounds nuw i8, ptr %0, i64 40
  %13 = sext i32 %1 to i64
  %14 = getelementptr inbounds [32 x [8 x i8]], ptr %12, i64 0, i64 %13
  %15 = load i8, ptr %14, align 1, !tbaa !3
  %.not1719 = icmp eq i8 %15, 0
  br i1 %.not1719, label %._crit_edge, label %.lr.ph

.lr.ph:                                           ; preds = %11
  %16 = getelementptr inbounds nuw i8, ptr %0, i64 4
  %17 = getelementptr inbounds nuw i8, ptr %0, i64 1320
  %18 = getelementptr inbounds nuw i8, ptr %0, i64 8
  br label %19

19:                                               ; preds = %.lr.ph, %35
  %20 = phi i8 [ %15, %.lr.ph ], [ %37, %35 ]
  %.020 = phi ptr [ %14, %.lr.ph ], [ %36, %35 ]
  %21 = sext i8 %20 to i32
  %22 = load i32, ptr %0, align 8, !tbaa !86
  %23 = add nsw i32 %22, 97
  %.not18 = icmp sgt i32 %23, %21
  br i1 %.not18, label %30, label %24

24:                                               ; preds = %19
  %25 = load i32, ptr %16, align 4, !tbaa !87
  %26 = add nsw i32 %25, 97
  %27 = icmp sgt i32 %26, %21
  br i1 %27, label %28, label %30

28:                                               ; preds = %24
  %29 = add nsw i32 %21, -97
  tail call fastcc void @Dau_DsdWriteVar(ptr noundef nonnull %0, i32 noundef %29, i32 noundef 0)
  br label %35

30:                                               ; preds = %24, %19
  %31 = load i32, ptr %18, align 8, !tbaa !93
  %32 = add nsw i32 %31, 1
  store i32 %32, ptr %18, align 8, !tbaa !93
  %33 = sext i32 %31 to i64
  %34 = getelementptr inbounds [2000 x i8], ptr %17, i64 0, i64 %33
  store i8 %20, ptr %34, align 1, !tbaa !3
  br label %35

35:                                               ; preds = %28, %30
  %36 = getelementptr inbounds nuw i8, ptr %.020, i64 1
  %37 = load i8, ptr %36, align 1, !tbaa !3
  %.not17 = icmp eq i8 %37, 0
  br i1 %.not17, label %._crit_edge, label %19, !llvm.loop !97

._crit_edge:                                      ; preds = %35, %11
  ret void
}